target datalayout = "e-m:e-p270:32:32-p271:32:32-p272:64:64-i64:64-i128:128-f80:128-n8:16:32:64-S128"
target triple = "x86_64-pc-linux-gnu"

@.str.1758 = private unnamed_addr constant [16 x i8] c"Z39.50 Protocol\00", align 1
@.str.1759 = private unnamed_addr constant [7 x i8] c"Z39.50\00", align 1
@.str.1760 = private unnamed_addr constant [6 x i8] c"z3950\00", align 1
@proto_z3950 = internal global i32 0, align 4
@.str.1761 = private unnamed_addr constant [18 x i8] c"desegment_buffers\00", align 1
@.str.1762 = private unnamed_addr constant [57 x i8] c"Reassemble Z39.50 buffers spanning multiple TCP segments\00", align 1
@.str.1763 = private unnamed_addr constant [210 x i8] c"Whether the Z39.50 dissector should reassemble TDS buffers spanning multiple TCP segments. To use this option, you must also enable \22Allow subdissectors to reassemble TCP streams\22 in the TCP protocol settings.\00", align 1
@z3950_desegment = internal global i8 1, align 1
@z3950_handle = internal global ptr null, align 8

; Function Attrs: null_pointer_is_valid sspstrong uwtable
define hidden void @proto_register_z3950() #0 {
  %1 = alloca ptr, align 8
  %2 = alloca ptr, align 8
  call void @llvm.lifetime.start.p0(i64 8, ptr %1) #8
  call void @llvm.lifetime.start.p0(i64 8, ptr %2) #8
  %3 = call i32 @proto_register_protocol(ptr noundef @.str.1758, ptr noundef @.str.1759, ptr noundef @.str.1760)
  store i32 %3, ptr @proto_z3950, align 4
  %4 = load i32, ptr @proto_z3950, align 4
  call void @proto_register_field_array(i32 noundef %4, ptr noundef @proto_register_z3950.hf, i32 noundef 880)
  call void @proto_register_subtree_array(ptr noundef @proto_register_z3950.ett, i32 noundef 298)
  %5 = load i32, ptr @proto_z3950, align 4
  %6 = call ptr @expert_register_protocol(i32 noundef %5)
  store ptr %6, ptr %2, align 8
  %7 = load ptr, ptr %2, align 8
  call void @expert_register_field_array(ptr noundef %7, ptr noundef @proto_register_z3950.ei, i32 noundef 3)
  %8 = load i32, ptr @proto_z3950, align 4
  %9 = call ptr @prefs_register_protocol(i32 noundef %8, ptr noundef null)
  store ptr %9, ptr %1, align 8
  %10 = load ptr, ptr %1, align 8
  call void @prefs_register_bool_preference(ptr noundef %10, ptr noundef @.str.1761, ptr noundef @.str.1762, ptr noundef @.str.1763, ptr noundef @z3950_desegment)
  %11 = load i32, ptr @proto_z3950, align 4
  %12 = call ptr @register_dissector(ptr noundef @.str.1759, ptr noundef @dissect_z3950_segment, i32 noundef %11)
  store ptr %12, ptr @z3950_handle, align 8
  call void @llvm.lifetime.end.p0(i64 8, ptr %2) #8
  call void @llvm.lifetime.end.p0(i64 8, ptr %1) #8
  ret void
}